; ModuleID = '9/746.c'
source_filename = "9/746.c"
target datalayout = "e-m:e-p270:32:32-p271:32:32-p272:64:64-i64:64-f80:128-n8:16:32:64-S128"
target triple = "x86_64-pc-linux-gnu"

%struct.pa = type { [11 x i8], i32 }

@.str = private unnamed_addr constant [3 x i8] c"%d\00", align 1
@.str.1 = private unnamed_addr constant [5 x i8] c"%s%d\00", align 1
@.str.2 = private unnamed_addr constant [4 x i8] c"%s\0A\00", align 1

; Function Attrs: noinline nounwind uwtable
define dso_local void @main() #0 {
  %1 = alloca [200 x %struct.pa], align 16
  %2 = alloca i32, align 4
  %3 = alloca i32, align 4
  %4 = alloca [200 x i32], align 16
  %5 = alloca i32, align 4
  %6 = alloca i32, align 4
  %7 = call i32 (i8*, ...) @__isoc99_scanf(i8* getelementptr inbounds ([3 x i8], [3 x i8]* @.str, i64 0, i64 0), i32* %2)
  store i32 0, i32* %3, align 4
  br label %8

8:                                                ; preds = %23, %0
  %9 = load i32, i32* %3, align 4
  %10 = load i32, i32* %2, align 4
  %11 = icmp slt i32 %9, %10
  br i1 %11, label %12, label %26

12:                                               ; preds = %8
  %13 = load i32, i32* %3, align 4
  %14 = sext i32 %13 to i64
  %15 = getelementptr inbounds [200 x %struct.pa], [200 x %struct.pa]* %1, i64 0, i64 %14
  %16 = getelementptr inbounds %struct.pa, %struct.pa* %15, i32 0, i32 0
  %17 = getelementptr inbounds [11 x i8], [11 x i8]* %16, i64 0, i64 0
  %18 = load i32, i32* %3, align 4
  %19 = sext i32 %18 to i64
  %20 = getelementptr inbounds [200 x %struct.pa], [200 x %struct.pa]* %1, i64 0, i64 %19
  %21 = getelementptr inbounds %struct.pa, %struct.pa* %20, i32 0, i32 1
  %22 = call i32 (i8*, ...) @__isoc99_scanf(i8* getelementptr inbounds ([5 x i8], [5 x i8]* @.str.1, i64 0, i64 0), i8* %17, i32* %21)
  br label %23

23:                                               ; preds = %12
  %24 = load i32, i32* %3, align 4
  %25 = add nsw i32 %24, 1
  store i32 %25, i32* %3, align 4
  br label %8

26:                                               ; preds = %8
  store i32 0, i32* %3, align 4
  %27 = getelementptr inbounds [200 x i32], [200 x i32]* %4, i64 0, i64 0
  store i32 0, i32* %27, align 16
  br label %28

28:                                               ; preds = %97, %26
  %29 = load i32, i32* %3, align 4
  %30 = load i32, i32* %2, align 4
  %31 = icmp slt i32 %29, %30
  br i1 %31, label %32, label %98

32:                                               ; preds = %28
  %33 = load i32, i32* %3, align 4
  %34 = sext i32 %33 to i64
  %35 = getelementptr inbounds [200 x %struct.pa], [200 x %struct.pa]* %1, i64 0, i64 %34
  %36 = getelementptr inbounds %struct.pa, %struct.pa* %35, i32 0, i32 1
  %37 = load i32, i32* %36, align 4
  %38 = icmp sge i32 %37, 60
  br i1 %38, label %39, label %90

39:                                               ; preds = %32
  store i32 0, i32* %5, align 4
  br label %40

40:                                               ; preds = %62, %39
  %41 = load i32, i32* %5, align 4
  %42 = load i32, i32* %3, align 4
  %43 = icmp slt i32 %41, %42
  br i1 %43, label %44, label %59

44:                                               ; preds = %40
  %45 = load i32, i32* %5, align 4
  %46 = sext i32 %45 to i64
  %47 = getelementptr inbounds [200 x i32], [200 x i32]* %4, i64 0, i64 %46
  %48 = load i32, i32* %47, align 4
  %49 = sext i32 %48 to i64
  %50 = getelementptr inbounds [200 x %struct.pa], [200 x %struct.pa]* %1, i64 0, i64 %49
  %51 = getelementptr inbounds %struct.pa, %struct.pa* %50, i32 0, i32 1
  %52 = load i32, i32* %51, align 4
  %53 = load i32, i32* %3, align 4
  %54 = sext i32 %53 to i64
  %55 = getelementptr inbounds [200 x %struct.pa], [200 x %struct.pa]* %1, i64 0, i64 %54
  %56 = getelementptr inbounds %struct.pa, %struct.pa* %55, i32 0, i32 1
  %57 = load i32, i32* %56, align 4
  %58 = icmp sge i32 %52, %57
  br label %59

59:                                               ; preds = %44, %40
  %60 = phi i1 [ false, %40 ], [ %58, %44 ]
  br i1 %60, label %61, label %65

61:                                               ; preds = %59
  br label %62

62:                                               ; preds = %61
  %63 = load i32, i32* %5, align 4
  %64 = add nsw i32 %63, 1
  store i32 %64, i32* %5, align 4
  br label %40

65:                                               ; preds = %59
  %66 = load i32, i32* %3, align 4
  store i32 %66, i32* %6, align 4
  br label %67

67:                                               ; preds = %80, %65
  %68 = load i32, i32* %6, align 4
  %69 = load i32, i32* %5, align 4
  %70 = icmp sgt i32 %68, %69
  br i1 %70, label %71, label %83

71:                                               ; preds = %67
  %72 = load i32, i32* %6, align 4
  %73 = sub nsw i32 %72, 1
  %74 = sext i32 %73 to i64
  %75 = getelementptr inbounds [200 x i32], [200 x i32]* %4, i64 0, i64 %74
  %76 = load i32, i32* %75, align 4
  %77 = load i32, i32* %6, align 4
  %78 = sext i32 %77 to i64
  %79 = getelementptr inbounds [200 x i32], [200 x i32]* %4, i64 0, i64 %78
  store i32 %76, i32* %79, align 4
  br label %80

80:                                               ; preds = %71
  %81 = load i32, i32* %6, align 4
  %82 = add nsw i32 %81, -1
  store i32 %82, i32* %6, align 4
  br label %67

83:                                               ; preds = %67
  %84 = load i32, i32* %3, align 4
  %85 = load i32, i32* %5, align 4
  %86 = sext i32 %85 to i64
  %87 = getelementptr inbounds [200 x i32], [200 x i32]* %4, i64 0, i64 %86
  store i32 %84, i32* %87, align 4
  %88 = load i32, i32* %3, align 4
  %89 = add nsw i32 %88, 1
  store i32 %89, i32* %3, align 4
  br label %97

90:                                               ; preds = %32
  %91 = load i32, i32* %3, align 4
  %92 = load i32, i32* %3, align 4
  %93 = sext i32 %92 to i64
  %94 = getelementptr inbounds [200 x i32], [200 x i32]* %4, i64 0, i64 %93
  store i32 %91, i32* %94, align 4
  %95 = load i32, i32* %3, align 4
  %96 = add nsw i32 %95, 1
  store i32 %96, i32* %3, align 4
  br label %97

97:                                               ; preds = %90, %83
  br label %28

98:                                               ; preds = %28
  store i32 0, i32* %3, align 4
  br label %99

99:                                               ; preds = %113, %98
  %100 = load i32, i32* %3, align 4
  %101 = load i32, i32* %2, align 4
  %102 = icmp slt i32 %100, %101
  br i1 %102, label %103, label %116

103:                                              ; preds = %99
  %104 = load i32, i32* %3, align 4
  %105 = sext i32 %104 to i64
  %106 = getelementptr inbounds [200 x i32], [200 x i32]* %4, i64 0, i64 %105
  %107 = load i32, i32* %106, align 4
  %108 = sext i32 %107 to i64
  %109 = getelementptr inbounds [200 x %struct.pa], [200 x %struct.pa]* %1, i64 0, i64 %108
  %110 = getelementptr inbounds %struct.pa, %struct.pa* %109, i32 0, i32 0
  %111 = getelementptr inbounds [11 x i8], [11 x i8]* %110, i64 0, i64 0
  %112 = call i32 (i8*, ...) @printf(i8* getelementptr inbounds ([4 x i8], [4 x i8]* @.str.2, i64 0, i64 0), i8* %111)
  br label %113

113:                                              ; preds = %103
  %114 = load i32, i32* %3, align 4
  %115 = add nsw i32 %114, 1
  store i32 %115, i32* %3, align 4
  br label %99

116:                                              ; preds = %99
  ret void
}

declare dso_local i32 @__isoc99_scanf(i8*, ...) #1

declare dso_local i32 @printf(i8*, ...) #1


!llvm.module.flags = !{!0}
!llvm.ident = !{!1}

!0 = !{i32 1, !"wchar_size", i32 4}
!1 = !{!"clang version 10.0.0-4ubuntu1 "}
